target datalayout = "e-m:e-p270:32:32-p271:32:32-p272:64:64-i64:64-i128:128-f80:128-n8:16:32:64-S128"
target triple = "x86_64-pc-linux-gnu"

%struct.tls_buffer_st = type { ptr, i64, i64, i64, i64, i32, i32 }
%struct.tls_rl_record_st = type { i32, i32, i64, i64, i64, ptr, ptr, ptr, i16, [8 x i8] }
%struct.ossl_record_layer_st = type { ptr, ptr, i32, i32, i32, i32, i32, ptr, i16, ptr, ptr, ptr, i64, i32, [33 x %struct.tls_buffer_st], i64, i64, %struct.tls_buffer_st, [32 x %struct.tls_rl_record_st], i64, i64, i64, i32, ptr, i64, [8 x i8], i32, i32, i64, i32, ptr, ptr, i64, ptr, ptr, i32, i32, i32, i64, i64, i64, [64 x i8], i32, i32, i32, ptr, ptr, i32, i32, i64, ptr, ptr, %struct.dtls_bitmap_st, %struct.dtls_bitmap_st, i32, ptr, ptr, ptr, ptr, ptr, i64, ptr }
%struct.dtls_bitmap_st = type { i64, [8 x i8] }

@.str = private unnamed_addr constant [43 x i8] c"../openssl/ssl/record/methods/tls_common.c\00", align 1

; Function Attrs: nounwind uwtable
define internal void @tls_release_write_buffer_int(ptr noundef %0, i64 noundef %1) #0 {
  %3 = alloca ptr, align 8
  %4 = alloca i64, align 8
  %5 = alloca ptr, align 8
  %6 = alloca i64, align 8
  store ptr %0, ptr %3, align 8, !tbaa !16
  store i64 %1, ptr %4, align 8, !tbaa !38
  call void @llvm.lifetime.start.p0(i64 8, ptr %5) #10
  call void @llvm.lifetime.start.p0(i64 8, ptr %6) #10
  %7 = load ptr, ptr %3, align 8, !tbaa !16
  %8 = getelementptr inbounds nuw %struct.ossl_record_layer_st, ptr %7, i32 0, i32 16
  %9 = load i64, ptr %8, align 8, !tbaa !49
  store i64 %9, ptr %6, align 8, !tbaa !38
  br label %10

10:                                               ; preds = %31, %2
  %11 = load i64, ptr %6, align 8, !tbaa !38
  %12 = load i64, ptr %4, align 8, !tbaa !38
  %13 = icmp ugt i64 %11, %12
  br i1 %13, label %14, label %36

14:                                               ; preds = %10
  %15 = load ptr, ptr %3, align 8, !tbaa !16
  %16 = getelementptr inbounds nuw %struct.ossl_record_layer_st, ptr %15, i32 0, i32 14
  %17 = load i64, ptr %6, align 8, !tbaa !38
  %18 = sub i64 %17, 1
  %19 = getelementptr inbounds nuw [33 x %struct.tls_buffer_st], ptr %16, i64 0, i64 %18
  store ptr %19, ptr %5, align 8, !tbaa !3
  %20 = load ptr, ptr %5, align 8, !tbaa !3
  %21 = getelementptr inbounds nuw %struct.tls_buffer_st, ptr %20, i32 0, i32 5
  %22 = load i32, ptr %21, align 8, !tbaa !54
  %23 = icmp ne i32 %22, 0
  br i1 %23, label %24, label %27

24:                                               ; preds = %14
  %25 = load ptr, ptr %5, align 8, !tbaa !3
  %26 = getelementptr inbounds nuw %struct.tls_buffer_st, ptr %25, i32 0, i32 5
  store i32 0, ptr %26, align 8, !tbaa !54
  br label %31

27:                                               ; preds = %14
  %28 = load ptr, ptr %5, align 8, !tbaa !3
  %29 = getelementptr inbounds nuw %struct.tls_buffer_st, ptr %28, i32 0, i32 0
  %30 = load ptr, ptr %29, align 8, !tbaa !8
  call void @CRYPTO_free(ptr noundef %30, ptr noundef @.str, i32 noundef 136)
  br label %31

31:                                               ; preds = %27, %24
  %32 = load ptr, ptr %5, align 8, !tbaa !3
  %33 = getelementptr inbounds nuw %struct.tls_buffer_st, ptr %32, i32 0, i32 0
  store ptr null, ptr %33, align 8, !tbaa !8
  %34 = load i64, ptr %6, align 8, !tbaa !38
  %35 = add i64 %34, -1
  store i64 %35, ptr %6, align 8, !tbaa !38
  br label %10, !llvm.loop !55

36:                                               ; preds = %10
  call void @llvm.lifetime.end.p0(i64 8, ptr %6) #10
  call void @llvm.lifetime.end.p0(i64 8, ptr %5) #10
  ret void
}

; Function Attrs: nounwind uwtable
define internal i32 @tls_release_read_buffer(ptr noundef %0) #0 {
  %2 = alloca ptr, align 8
  %3 = alloca ptr, align 8
  store ptr %0, ptr %2, align 8, !tbaa !16
  call void @llvm.lifetime.start.p0(i64 8, ptr %3) #10
  %4 = load ptr, ptr %2, align 8, !tbaa !16
  %5 = getelementptr inbounds nuw %struct.ossl_record_layer_st, ptr %4, i32 0, i32 17
  store ptr %5, ptr %3, align 8, !tbaa !3
  %6 = load ptr, ptr %2, align 8, !tbaa !16
  %7 = getelementptr inbounds nuw %struct.ossl_record_layer_st, ptr %6, i32 0, i32 12
  %8 = load i64, ptr %7, align 8, !tbaa !47
  %9 = and i64 %8, 2
  %10 = icmp ne i64 %9, 0
  br i1 %10, label %11, label %18

11:                                               ; preds = %1
  %12 = load ptr, ptr %3, align 8, !tbaa !3
  %13 = getelementptr inbounds nuw %struct.tls_buffer_st, ptr %12, i32 0, i32 0
  %14 = load ptr, ptr %13, align 8, !tbaa !8
  %15 = load ptr, ptr %3, align 8, !tbaa !3
  %16 = getelementptr inbounds nuw %struct.tls_buffer_st, ptr %15, i32 0, i32 2
  %17 = load i64, ptr %16, align 8, !tbaa !48
  call void @OPENSSL_cleanse(ptr noundef %14, i64 noundef %17)
  br label %18

18:                                               ; preds = %11, %1
  %19 = load ptr, ptr %3, align 8, !tbaa !3
  %20 = getelementptr inbounds nuw %struct.tls_buffer_st, ptr %19, i32 0, i32 0
  %21 = load ptr, ptr %20, align 8, !tbaa !8
  call void @CRYPTO_free(ptr noundef %21, ptr noundef @.str, i32 noundef 284)
  %22 = load ptr, ptr %3, align 8, !tbaa !3
  %23 = getelementptr inbounds nuw %struct.tls_buffer_st, ptr %22, i32 0, i32 0
  store ptr null, ptr %23, align 8, !tbaa !8
  %24 = load ptr, ptr %2, align 8, !tbaa !16
  %25 = getelementptr inbounds nuw %struct.ossl_record_layer_st, ptr %24, i32 0, i32 23
  store ptr null, ptr %25, align 8, !tbaa !62
  %26 = load ptr, ptr %2, align 8, !tbaa !16
  %27 = getelementptr inbounds nuw %struct.ossl_record_layer_st, ptr %26, i32 0, i32 24
  store i64 0, ptr %27, align 8, !tbaa !63
  call void @llvm.lifetime.end.p0(i64 8, ptr %3) #10
  ret i32 1
}

; Function Attrs: nounwind uwtable
define internal void @tls_release_write_buffer(ptr noundef %0) #0 {
  %2 = alloca ptr, align 8
  store ptr %0, ptr %2, align 8, !tbaa !16
  %3 = load ptr, ptr %2, align 8, !tbaa !16
  call void @tls_release_write_buffer_int(ptr noundef %3, i64 noundef 0)
  %4 = load ptr, ptr %2, align 8, !tbaa !16
  %5 = getelementptr inbounds nuw %struct.ossl_record_layer_st, ptr %4, i32 0, i32 16
  store i64 0, ptr %5, align 8, !tbaa !49
  ret void
}

; Function Attrs: nounwind uwtable
define i32 @tls_free_buffers(ptr noundef %0) #0 {
  %2 = alloca i32, align 4
  %3 = alloca ptr, align 8
  store ptr %0, ptr %3, align 8, !tbaa !16
  %4 = load ptr, ptr %3, align 8, !tbaa !16
  %5 = getelementptr inbounds nuw %struct.ossl_record_layer_st, ptr %4, i32 0, i32 5
  %6 = load i32, ptr %5, align 4, !tbaa !128
  %7 = icmp eq i32 %6, 1
  br i1 %7, label %8, label %37

8:                                                ; preds = %1
  %9 = load ptr, ptr %3, align 8, !tbaa !16
  %10 = getelementptr inbounds nuw %struct.ossl_record_layer_st, ptr %9, i32 0, i32 15
  %11 = load i64, ptr %10, align 8, !tbaa !176
  %12 = load ptr, ptr %3, align 8, !tbaa !16
  %13 = getelementptr inbounds nuw %struct.ossl_record_layer_st, ptr %12, i32 0, i32 16
  %14 = load i64, ptr %13, align 8, !tbaa !49
  %15 = icmp ult i64 %11, %14
  br i1 %15, label %16, label %35

16:                                               ; preds = %8
  %17 = load ptr, ptr %3, align 8, !tbaa !16
  %18 = getelementptr inbounds nuw %struct.ossl_record_layer_st, ptr %17, i32 0, i32 15
  %19 = load i64, ptr %18, align 8, !tbaa !176
  %20 = icmp ne i64 %19, 0
  br i1 %20, label %33, label %21

21:                                               ; preds = %16
  %22 = load ptr, ptr %3, align 8, !tbaa !16
  %23 = getelementptr inbounds nuw %struct.ossl_record_layer_st, ptr %22, i32 0, i32 16
  %24 = load i64, ptr %23, align 8, !tbaa !49
  %25 = icmp ne i64 %24, 1
  br i1 %25, label %33, label %26

26:                                               ; preds = %21
  %27 = load ptr, ptr %3, align 8, !tbaa !16
  %28 = getelementptr inbounds nuw %struct.ossl_record_layer_st, ptr %27, i32 0, i32 14
  %29 = getelementptr inbounds [33 x %struct.tls_buffer_st], ptr %28, i64 0, i64 0
  %30 = getelementptr inbounds nuw %struct.tls_buffer_st, ptr %29, i32 0, i32 4
  %31 = load i64, ptr %30, align 8, !tbaa !60
  %32 = icmp ne i64 %31, 0
  br i1 %32, label %33, label %34

33:                                               ; preds = %26, %21, %16
  store i32 0, ptr %2, align 4
  br label %68

34:                                               ; preds = %26
  br label %35

35:                                               ; preds = %34, %8
  %36 = load ptr, ptr %3, align 8, !tbaa !16
  call void @tls_release_write_buffer(ptr noundef %36)
  store i32 1, ptr %2, align 4
  br label %68

37:                                               ; preds = %1
  %38 = load ptr, ptr %3, align 8, !tbaa !16
  %39 = getelementptr inbounds nuw %struct.ossl_record_layer_st, ptr %38, i32 0, i32 20
  %40 = load i64, ptr %39, align 8, !tbaa !94
  %41 = load ptr, ptr %3, align 8, !tbaa !16
  %42 = getelementptr inbounds nuw %struct.ossl_record_layer_st, ptr %41, i32 0, i32 19
  %43 = load i64, ptr %42, align 8, !tbaa !93
  %44 = icmp ult i64 %40, %43
  br i1 %44, label %64, label %45

45:                                               ; preds = %37
  %46 = load ptr, ptr %3, align 8, !tbaa !16
  %47 = getelementptr inbounds nuw %struct.ossl_record_layer_st, ptr %46, i32 0, i32 20
  %48 = load i64, ptr %47, align 8, !tbaa !94
  %49 = load ptr, ptr %3, align 8, !tbaa !16
  %50 = getelementptr inbounds nuw %struct.ossl_record_layer_st, ptr %49, i32 0, i32 21
  %51 = load i64, ptr %50, align 8, !tbaa !95
  %52 = icmp ne i64 %48, %51
  br i1 %52, label %64, label %53

53:                                               ; preds = %45
  %54 = load ptr, ptr %3, align 8, !tbaa !16
  %55 = getelementptr inbounds nuw %struct.ossl_record_layer_st, ptr %54, i32 0, i32 17
  %56 = getelementptr inbounds nuw %struct.tls_buffer_st, ptr %55, i32 0, i32 4
  %57 = load i64, ptr %56, align 8, !tbaa !127
  %58 = icmp ne i64 %57, 0
  br i1 %58, label %64, label %59

59:                                               ; preds = %53
  %60 = load ptr, ptr %3, align 8, !tbaa !16
  %61 = getelementptr inbounds nuw %struct.ossl_record_layer_st, ptr %60, i32 0, i32 22
  %62 = load i32, ptr %61, align 8, !tbaa !72
  %63 = icmp eq i32 %62, 241
  br i1 %63, label %64, label %65

64:                                               ; preds = %59, %53, %45, %37
  store i32 0, ptr %2, align 4
  br label %68

65:                                               ; preds = %59
  %66 = load ptr, ptr %3, align 8, !tbaa !16
  %67 = call i32 @tls_release_read_buffer(ptr noundef %66)
  store i32 %67, ptr %2, align 4
  br label %68

68:                                               ; preds = %65, %64, %35, %33
  %69 = load i32, ptr %2, align 4
  ret i32 %69
}