; Function Attrs: nounwind uwtable
define range(i32 0, 2) i32 @tls_free_buffers(ptr noundef captures(none) %0) #0 {
  %2 = getelementptr inbounds nuw i8, ptr %0, i64 28
  %3 = load i32, ptr %2, align 4, !tbaa !103
  %4 = icmp eq i32 %3, 1
  br i1 %4, label %5, label %26

5:                                                ; preds = %1
  %6 = getelementptr inbounds nuw i8, ptr %0, i64 1680
  %7 = load i64, ptr %6, align 8, !tbaa !144
  %8 = getelementptr inbounds nuw i8, ptr %0, i64 1688
  %9 = load i64, ptr %8, align 8, !tbaa !38
  %10 = icmp ult i64 %7, %9
  br i1 %10, label %11, label %15

11:                                               ; preds = %5
  %.not19 = icmp eq i64 %9, 1
  br i1 %.not19, label %12, label %53

12:                                               ; preds = %11
  %13 = getelementptr inbounds nuw i8, ptr %0, i64 128
  %14 = load i64, ptr %13, align 8, !tbaa !45
  %.not20 = icmp eq i64 %14, 0
  br i1 %.not20, label %.lr.ph.i.i, label %53

15:                                               ; preds = %5
  %.not.i = icmp eq i64 %9, 0
  br i1 %.not.i, label %tls_release_write_buffer.exit, label %.lr.ph.i.i

.lr.ph.i.i:                                       ; preds = %12, %15
  %16 = getelementptr inbounds nuw i8, ptr %0, i64 96
  br label %17

17:                                               ; preds = %25, %.lr.ph.i.i
  %.09.i.i = phi i64 [ %9, %.lr.ph.i.i ], [ %18, %25 ]
  %18 = add i64 %.09.i.i, -1
  %19 = getelementptr inbounds nuw [33 x %struct.tls_buffer_st], ptr %16, i64 0, i64 %18
  %20 = getelementptr inbounds nuw i8, ptr %19, i64 40
  %21 = load i32, ptr %20, align 8, !tbaa !41
  %.not.i.i = icmp eq i32 %21, 0
  br i1 %.not.i.i, label %23, label %22

22:                                               ; preds = %17
  store i32 0, ptr %20, align 8, !tbaa !41
  br label %25

23:                                               ; preds = %17
  %24 = load ptr, ptr %19, align 8, !tbaa !3
  tail call void @CRYPTO_free(ptr noundef %24, ptr noundef nonnull @.str, i32 noundef 136) #13
  br label %25

25:                                               ; preds = %23, %22
  store ptr null, ptr %19, align 8, !tbaa !3
  %.not2.i = icmp eq i64 %18, 0
  br i1 %.not2.i, label %tls_release_write_buffer.exit, label %17, !llvm.loop !42

tls_release_write_buffer.exit:                    ; preds = %25, %15
  store i64 0, ptr %8, align 8, !tbaa !38
  br label %53

26:                                               ; preds = %1
  %27 = getelementptr inbounds nuw i8, ptr %0, i64 4056
  %28 = load i64, ptr %27, align 8, !tbaa !95
  %29 = getelementptr inbounds nuw i8, ptr %0, i64 4048
  %30 = load i64, ptr %29, align 8, !tbaa !88
  %31 = icmp ult i64 %28, %30
  br i1 %31, label %53, label %32

32:                                               ; preds = %26
  %33 = getelementptr inbounds nuw i8, ptr %0, i64 4064
  %34 = load i64, ptr %33, align 8, !tbaa !96
  %.not = icmp eq i64 %28, %34
  br i1 %.not, label %35, label %53

35:                                               ; preds = %32
  %36 = getelementptr inbounds nuw i8, ptr %0, i64 1728
  %37 = load i64, ptr %36, align 8, !tbaa !102
  %.not17 = icmp eq i64 %37, 0
  br i1 %.not17, label %38, label %53

38:                                               ; preds = %35
  %39 = getelementptr inbounds nuw i8, ptr %0, i64 4072
  %40 = load i32, ptr %39, align 8, !tbaa !55
  %41 = icmp eq i32 %40, 241
  br i1 %41, label %53, label %42

42:                                               ; preds = %38
  %43 = getelementptr inbounds nuw i8, ptr %0, i64 1696
  %44 = getelementptr inbounds nuw i8, ptr %0, i64 80
  %45 = load i64, ptr %44, align 8, !tbaa !34
  %46 = and i64 %45, 2
  %.not.i21 = icmp eq i64 %46, 0
  br i1 %.not.i21, label %tls_release_read_buffer.exit, label %47

47:                                               ; preds = %42
  %48 = load ptr, ptr %43, align 8, !tbaa !3
  %49 = getelementptr inbounds nuw i8, ptr %0, i64 1712
  %50 = load i64, ptr %49, align 8, !tbaa !37
  tail call void @OPENSSL_cleanse(ptr noundef %48, i64 noundef %50) #13
  br label %tls_release_read_buffer.exit

tls_release_read_buffer.exit:                     ; preds = %42, %47
  %51 = load ptr, ptr %43, align 8, !tbaa !3
  tail call void @CRYPTO_free(ptr noundef %51, ptr noundef nonnull @.str, i32 noundef 284) #13
  store ptr null, ptr %43, align 8, !tbaa !3
  %52 = getelementptr inbounds nuw i8, ptr %0, i64 4080
  tail call void @llvm.memset.p0.i64(ptr noundef nonnull align 8 dereferenceable(16) %52, i8 0, i64 16, i1 false)
  br label %53

53:                                               ; preds = %26, %32, %35, %38, %11, %12, %tls_release_read_buffer.exit, %tls_release_write_buffer.exit
  %.0 = phi i32 [ 1, %tls_release_write_buffer.exit ], [ 1, %tls_release_read_buffer.exit ], [ 0, %12 ], [ 0, %11 ], [ 0, %38 ], [ 0, %35 ], [ 0, %32 ], [ 0, %26 ]
  ret i32 %.0
}